target datalayout = "e-m:e-p270:32:32-p271:32:32-p272:64:64-i64:64-i128:128-f80:128-n8:16:32:64-S128"
target triple = "x86_64-pc-linux-gnu"

@.str.12 = private unnamed_addr constant [37 x i8] c"Couldn't find sym '%s' in the plugin\00", align 1

; Function Attrs: nounwind uwtable
define dso_local i32 @plugin_get_syms(ptr noundef %0, i32 noundef %1, ptr noundef %2, ptr noundef %3) #0 {
  %5 = alloca ptr, align 8
  %6 = alloca i32, align 4
  %7 = alloca ptr, align 8
  %8 = alloca ptr, align 8
  %9 = alloca i32, align 4
  %10 = alloca i32, align 4
  store ptr %0, ptr %5, align 8
  store i32 %1, ptr %6, align 4
  store ptr %2, ptr %7, align 8
  store ptr %3, ptr %8, align 8
  call void @llvm.lifetime.start.p0(i64 4, ptr %9) #7
  call void @llvm.lifetime.start.p0(i64 4, ptr %10) #7
  store i32 0, ptr %10, align 4
  store i32 0, ptr %9, align 4
  br label %11

11:                                               ; preds = %53, %4
  %12 = load i32, ptr %9, align 4
  %13 = load i32, ptr %6, align 4
  %14 = icmp slt i32 %12, %13
  br i1 %14, label %15, label %56

15:                                               ; preds = %11
  %16 = load ptr, ptr %5, align 8
  %17 = load ptr, ptr %7, align 8
  %18 = load i32, ptr %9, align 4
  %19 = sext i32 %18 to i64
  %20 = getelementptr inbounds ptr, ptr %17, i64 %19
  %21 = load ptr, ptr %20, align 8
  %22 = call ptr @dlsym(ptr noundef %16, ptr noundef %21) #7
  %23 = load ptr, ptr %8, align 8
  %24 = load i32, ptr %9, align 4
  %25 = sext i32 %24 to i64
  %26 = getelementptr inbounds ptr, ptr %23, i64 %25
  store ptr %22, ptr %26, align 8
  %27 = load ptr, ptr %8, align 8
  %28 = load i32, ptr %9, align 4
  %29 = sext i32 %28 to i64
  %30 = getelementptr inbounds ptr, ptr %27, i64 %29
  %31 = load ptr, ptr %30, align 8
  %32 = icmp ne ptr %31, null
  br i1 %32, label %33, label %36

33:                                               ; preds = %15
  %34 = load i32, ptr %10, align 4
  %35 = add nsw i32 %34, 1
  store i32 %35, ptr %10, align 4
  br label %52

36:                                               ; preds = %15
  br label %37

37:                                               ; preds = %36
  br label %38

38:                                               ; preds = %37
  %39 = call i32 @get_log_level()
  %40 = icmp sge i32 %39, 7
  br i1 %40, label %41, label %47

41:                                               ; preds = %38
  %42 = load ptr, ptr %7, align 8
  %43 = load i32, ptr %9, align 4
  %44 = sext i32 %43 to i64
  %45 = getelementptr inbounds ptr, ptr %42, i64 %44
  %46 = load ptr, ptr %45, align 8
  call void (i32, ptr, ...) @log_var(i32 noundef 7, ptr noundef @.str.12, ptr noundef %46)
  br label %47

47:                                               ; preds = %41, %38
  br label %48

48:                                               ; preds = %47
  br label %49

49:                                               ; preds = %48
  br label %50

50:                                               ; preds = %49
  br label %51

51:                                               ; preds = %50
  br label %52

52:                                               ; preds = %51, %33
  br label %53

53:                                               ; preds = %52
  %54 = load i32, ptr %9, align 4
  %55 = add nsw i32 %54, 1
  store i32 %55, ptr %9, align 4
  br label %11, !llvm.loop !8

56:                                               ; preds = %11
  %57 = load i32, ptr %10, align 4
  call void @llvm.lifetime.end.p0(i64 4, ptr %10) #7
  call void @llvm.lifetime.end.p0(i64 4, ptr %9) #7
  ret i32 %57
}