; Function Attrs: nounwind uwtable
define dso_local i32 @plugin_get_syms(ptr noundef %0, i32 noundef %1, ptr noundef readonly captures(none) %2, ptr noundef writeonly captures(none) %3) #0 {
  %5 = icmp sgt i32 %1, 0
  br i1 %5, label %.lr.ph.preheader, label %._crit_edge

.lr.ph.preheader:                                 ; preds = %4
  %wide.trip.count = zext nneg i32 %1 to i64
  br label %.lr.ph

.lr.ph:                                           ; preds = %.lr.ph.preheader, %17
  %indvars.iv = phi i64 [ 0, %.lr.ph.preheader ], [ %indvars.iv.next, %17 ]
  %.015 = phi i32 [ 0, %.lr.ph.preheader ], [ %.1, %17 ]
  %6 = getelementptr inbounds nuw ptr, ptr %2, i64 %indvars.iv
  %7 = load ptr, ptr %6, align 8
  %8 = tail call ptr @dlsym(ptr noundef %0, ptr noundef %7) #10
  %9 = getelementptr inbounds nuw ptr, ptr %3, i64 %indvars.iv
  store ptr %8, ptr %9, align 8
  %.not = icmp eq ptr %8, null
  br i1 %.not, label %12, label %10

10:                                               ; preds = %.lr.ph
  %11 = add nsw i32 %.015, 1
  br label %17

12:                                               ; preds = %.lr.ph
  %13 = tail call i32 @get_log_level() #10
  %14 = icmp sgt i32 %13, 6
  br i1 %14, label %15, label %17

15:                                               ; preds = %12
  %16 = load ptr, ptr %6, align 8
  tail call void (i32, ptr, ...) @log_var(i32 noundef 7, ptr noundef nonnull @.str.12, ptr noundef %16) #10
  br label %17

17:                                               ; preds = %10, %15, %12
  %.1 = phi i32 [ %11, %10 ], [ %.015, %15 ], [ %.015, %12 ]
  %indvars.iv.next = add nuw nsw i64 %indvars.iv, 1
  %exitcond.not = icmp eq i64 %indvars.iv.next, %wide.trip.count
  br i1 %exitcond.not, label %._crit_edge, label %.lr.ph, !llvm.loop !8

._crit_edge:                                      ; preds = %17, %4
  %.0.lcssa = phi i32 [ 0, %4 ], [ %.1, %17 ]
  ret i32 %.0.lcssa
}